
a.out:     file format elf32-littlearm

Contents of section .interp:
 8134 2f6c6962 2f6c642d 6c696e75 782d6172  /lib/ld-linux-ar
 8144 6d68662e 736f2e33 00                 mhf.so.3.       
Contents of section .note.ABI-tag:
 8150 04000000 10000000 01000000 474e5500  ............GNU.
 8160 00000000 02000000 06000000 1a000000  ................
Contents of section .note.gnu.build-id:
 8170 04000000 14000000 03000000 474e5500  ............GNU.
 8180 b42e9eb5 653254b2 fcdc2e8e c9c79549  ....e2T........I
 8190 09414c80                             .AL.            
Contents of section .hash:
 8194 03000000 0f000000 0a000000 06000000  ................
 81a4 09000000 00000000 04000000 05000000  ................
 81b4 00000000 0b000000 01000000 0d000000  ................
 81c4 0c000000 0e000000 08000000 02000000  ................
 81d4 00000000 00000000 07000000 03000000  ................
Contents of section .gnu.hash:
 81e4 03000000 03000000 04000000 07000000  ................
 81f4 81020040 80402099 08040041 80054024  ...@.@ ....A..@$
 8204 03000000 07000000 0b000000 00af34e8  ..............4.
 8214 4245d5ec 8873880b bbe3927c beda571b  BE...s.....|..W.
 8224 d871581c 7ced110f b98df10e 76543c94  .qX.|.......vT<.
 8234 ead3ef0e 2e4e3df6 59ef9779           .....N=.Y..y    
Contents of section .dynsym:
 8240 00000000 00000000 00000000 00000000  ................
 8250 0b000000 00000000 00000000 20000000  ............ ...
 8260 1a000000 00000000 00000000 20000000  ............ ...
 8270 8c000000 18070100 00000000 10001900  ................
 8280 6a000000 14070100 00000000 10001800  j...............
 8290 2e000000 00000000 00000000 12000000  ................
 82a0 9f000000 18070100 00000000 10001900  ................
 82b0 8b000000 18070100 00000000 10001900  ................
 82c0 71000000 14070100 00000000 10001900  q...............
 82d0 52000000 00000000 00000000 12000000  R...............
 82e0 32000000 44840000 00000000 12000c00  2...D...........
 82f0 7d000000 14070100 00000000 10001900  }...............
 8300 38000000 c8850000 00000000 12000f00  8...............
 8310 58000000 00000000 00000000 12000000  X...............
 8320 97000000 18070100 00000000 10001900  ................
Contents of section .dynstr:
 8330 002e2f4c 69625f61 2e6f005f 5f676d6f  ../Lib_a.o.__gmo
 8340 6e5f7374 6172745f 5f005f4a 765f5265  n_start__._Jv_Re
 8350 67697374 6572436c 61737365 7300666f  gisterClasses.fo
 8360 6f005f69 6e697400 5f66696e 69002e2f  o._init._fini../
 8370 4c69625f 622e6f00 6c696263 2e736f2e  Lib_b.o.libc.so.
 8380 36006162 6f727400 5f5f6c69 62635f73  6.abort.__libc_s
 8390 74617274 5f6d6169 6e005f65 64617461  tart_main._edata
 83a0 005f5f62 73735f73 74617274 005f5f62  .__bss_start.__b
 83b0 73735f73 74617274 5f5f005f 5f627373  ss_start__.__bss
 83c0 5f656e64 5f5f005f 5f656e64 5f5f005f  _end__.__end__._
 83d0 656e6400 474c4942 435f322e 3400      end.GLIBC_2.4.  
Contents of section .gnu.version:
 83de 00000000 00000100 01000000 01000100  ................
 83ee 01000200 01000100 01000200 0100      ..............  
Contents of section .gnu.version_r:
 83fc 01000100 48000000 10000000 00000000  ....H...........
 840c 1469690d 00000200 a4000000 00000000  .ii.............
Contents of section .rel.dyn:
 841c 08070100 15010000                    ........        
Contents of section .rel.plt:
 8424 f8060100 160d0000 fc060100 16010000  ................
 8434 00070100 16050000 04070100 16090000  ................
Contents of section .init:
 8444 08402de9 200000eb 0880bde8           .@-. .......    
Contents of section .plt:
 8450 04e02de5 04e09fe5 0ee08fe0 08f0bee5  ..-.............
 8460 8c820000 00c68fe2 08ca8ce2 8cf2bce5  ................
 8470 00c68fe2 08ca8ce2 84f2bce5 00c68fe2  ................
 8480 08ca8ce2 7cf2bce5 00c68fe2 08ca8ce2  ....|...........
 8490 74f2bce5                             t...            
Contents of section .text:
 8494 00b0a0e3 00e0a0e3 04109de4 0d20a0e1  ............. ..
 84a4 04202de5 04002de5 10c09fe5 04c02de5  . -...-.......-.
 84b4 0c009fe5 0c309fe5 e8ffffeb f0ffffeb  .....0..........
 84c4 c4850000 40850000 64850000 14309fe5  ....@...d....0..
 84d4 14209fe5 03308fe0 023093e7 000053e3  . ...0...0....S.
 84e4 1eff2f01 e0ffffea 0c820000 1c000000  ../.............
 84f4 10309fe5 0020d3e5 000052e3 0120a003  .0... ....R.. ..
 8504 0020c305 1eff2fe1 14070100 20009fe5  . ..../..... ...
 8514 08402de9 003090e5 000053e3 0880bd08  .@-..0....S.....
 8524 10309fe5 000053e3 0880bd08 33ff2fe1  .0....S.....3./.
 8534 0880bde8 e8050100 00000000 00482de9  .............H-.
 8544 04b08de2 08d04de2 08000be5 0c100be5  ......M.........
 8554 c8ffffeb 0300a0e1 04d04be2 0088bde8  ..........K.....
 8564 f8452de9 0060a0e1 48509fe5 48a09fe5  .E-..`..HP..H...
 8574 05508fe0 0aa08fe0 0aa065e0 0170a0e1  .P........e..p..
 8584 0280a0e1 adffffeb 4aa1b0e1 f885bd08  ........J.......
 8594 0040a0e3 043095e4 0600a0e1 0710a0e1  .@...0..........
 85a4 0820a0e1 014084e2 33ff2fe1 0a0054e1  . ...@..3./...T.
 85b4 f7ffff1a f885bde8 64800000 64800000  ........d...d...
 85c4 1eff2fe1                             ../.            
Contents of section .fini:
 85c8 08402de9 0880bde8                    .@-.....        
Contents of section .rodata:
 85d0 01000200                             ....            
Contents of section .ARM.exidx:
 85d4 c0feff7f 01000000                    ........        
Contents of section .eh_frame:
 85dc 00000000                             ....            
Contents of section .init_array:
 105e0 10850000                             ....            
Contents of section .fini_array:
 105e4 f4840000                             ....            
Contents of section .jcr:
 105e8 00000000                             ....            
Contents of section .dynamic:
 105ec 01000000 01000000 01000000 3e000000  ............>...
 105fc 01000000 48000000 0c000000 44840000  ....H.......D...
 1060c 0d000000 c8850000 19000000 e0050100  ................
 1061c 1b000000 04000000 1a000000 e4050100  ................
 1062c 1c000000 04000000 04000000 94810000  ................
 1063c f5feff6f e4810000 05000000 30830000  ...o........0...
 1064c 06000000 40820000 0a000000 ae000000  ....@...........
 1065c 0b000000 10000000 15000000 00000000  ................
 1066c 03000000 ec060100 02000000 20000000  ............ ...
 1067c 14000000 11000000 17000000 24840000  ............$...
 1068c 11000000 1c840000 12000000 08000000  ................
 1069c 13000000 08000000 feffff6f fc830000  ...........o....
 106ac ffffff6f 01000000 f0ffff6f de830000  ...o.......o....
 106bc 00000000 00000000 00000000 00000000  ................
 106cc 00000000 00000000 00000000 00000000  ................
 106dc 00000000 00000000 00000000 00000000  ................
Contents of section .got:
 106ec ec050100 00000000 00000000 50840000  ............P...
 106fc 50840000 50840000 50840000 00000000  P...P...P.......
Contents of section .data:
 1070c 00000000 00000000                    ........        
Contents of section .comment:
 0000 4743433a 20284465 6269616e 20342e36  GCC: (Debian 4.6
 0010 2e332d31 342b7270 69312920 342e362e  .3-14+rpi1) 4.6.
 0020 3300                                 3.              
Contents of section .ARM.attributes:
 0000 412e0000 00616561 62690001 24000000  A....aeabi..$...
 0010 05360006 06080109 010a0212 04140115  .6..............
 0020 01170318 0119011a 021b031c 012c01    .............,. 
Contents of section .debug_aranges:
 0000 1c000000 02000000 00000400 00000000  ................
 0010 40850000 24000000 00000000 00000000  @...$...........
Contents of section .debug_info:
 0000 b5000000 02000000 00000401 8f000000  ................
 0010 01880000 000e0000 00408500 00648500  .........@...d..
 0020 00000000 00020407 68000000 02010875  ........h......u
 0030 00000002 0207a000 00000204 07630000  .............c..
 0040 00020106 77000000 020205b3 00000003  ....w...........
 0050 0405696e 74000208 05000000 00020807  ..int...........
 0060 5e000000 02040505 00000004 04710000  ^............q..
 0070 00020108 7e000000 05018300 00000104  ....~...........
 0080 014f0000 00408500 00648500 00000000  .O...@...d......
 0090 00b20000 00069b00 00000104 4f000000  ............O...
 00a0 02917406 bd000000 0104b200 00000291  ..t.............
 00b0 70000404 6b000000 00                 p...k....       
Contents of section .debug_abbrev:
 0000 01110125 0e130b03 0e1b0e11 01120110  ...%............
 0010 06000002 24000b0b 3e0b030e 00000324  ....$...>......$
 0020 000b0b3e 0b030800 00040f00 0b0b4913  ...>..........I.
 0030 0000052e 013f0c03 0e3a0b3b 0b270c49  .....?...:.;.'.I
 0040 13110112 01400601 13000006 0500030e  .....@..........
 0050 3a0b3b0b 4913020a 000000             :.;.I......     
Contents of section .debug_line:
 0000 32000000 02001d00 00000201 fb0e0d00  2...............
 0010 01010101 00000001 00000100 6d61696e  ............main
 0020 2e630000 00000000 05024085 0000169f  .c........@.....
 0030 2f020600 0101                        /.....          
Contents of section .debug_frame:
 0000 0c000000 ffffffff 0100027c 0e0c0d00  ...........|....
 0010 18000000 00000000 40850000 24000000  ........@...$...
 0020 420e088e 018b0242 0c0b0400           B......B....    
Contents of section .debug_str:
 0000 6c6f6e67 206c6f6e 6720696e 74002f68  long long int./h
 0010 6f6d652f 70692f74 6d702f63 5f6c616e  ome/pi/tmp/c_lan
 0020 67756167 652f6c69 6e6b6167 655f6c6f  guage/linkage_lo
 0030 61646572 5f6c6962 72617279 2f636837  ader_library/ch7
 0040 5f64796e 616d6963 5f6c696e 6b616765  _dynamic_linkage
 0050 2f636837 2e332e33 2d665049 43006c6f  /ch7.3.3-fPIC.lo
 0060 6e67206c 6f6e6720 756e7369 676e6564  ng long unsigned
 0070 20696e74 00756e73 69676e65 64206368   int.unsigned ch
 0080 6172006d 61696e00 6d61696e 2e630047  ar.main.main.c.G
 0090 4e552043 20342e36 2e330061 72676300  NU C 4.6.3.argc.
 00a0 73686f72 7420756e 7369676e 65642069  short unsigned i
 00b0 6e740073 686f7274 20696e74 00617267  nt.short int.arg
 00c0 7600                                 v.              
Contents of section .debug_loc:
 0000 00000000 04000000 02007d00 04000000  ..........}.....
 0010 08000000 02007d08 08000000 24000000  ......}.....$...
 0020 02007b04 00000000 00000000           ..{.........    

Disassembly of section .init:

00008444 <_init>:
    8444:	e92d4008 	push	{r3, lr}
    8448:	eb000020 	bl	84d0 <call_gmon_start>
    844c:	e8bd8008 	pop	{r3, pc}

Disassembly of section .plt:

00008450 <__libc_start_main@plt-0x14>:
    8450:	e52de004 	push	{lr}		; (str lr, [sp, #-4]!)
    8454:	e59fe004 	ldr	lr, [pc, #4]	; 8460 <_init+0x1c>
    8458:	e08fe00e 	add	lr, pc, lr
    845c:	e5bef008 	ldr	pc, [lr, #8]!
    8460:	0000828c 	andeq	r8, r0, ip, lsl #5

00008464 <__libc_start_main@plt>:
    8464:	e28fc600 	add	ip, pc, #0, 12
    8468:	e28cca08 	add	ip, ip, #8, 20	; 0x8000
    846c:	e5bcf28c 	ldr	pc, [ip, #652]!	; 0x28c

00008470 <__gmon_start__@plt>:
    8470:	e28fc600 	add	ip, pc, #0, 12
    8474:	e28cca08 	add	ip, ip, #8, 20	; 0x8000
    8478:	e5bcf284 	ldr	pc, [ip, #644]!	; 0x284

0000847c <foo@plt>:
    847c:	e28fc600 	add	ip, pc, #0, 12
    8480:	e28cca08 	add	ip, ip, #8, 20	; 0x8000
    8484:	e5bcf27c 	ldr	pc, [ip, #636]!	; 0x27c

00008488 <abort@plt>:
    8488:	e28fc600 	add	ip, pc, #0, 12
    848c:	e28cca08 	add	ip, ip, #8, 20	; 0x8000
    8490:	e5bcf274 	ldr	pc, [ip, #628]!	; 0x274

Disassembly of section .text:

00008494 <_start>:
    8494:	e3a0b000 	mov	fp, #0
    8498:	e3a0e000 	mov	lr, #0
    849c:	e49d1004 	pop	{r1}		; (ldr r1, [sp], #4)
    84a0:	e1a0200d 	mov	r2, sp
    84a4:	e52d2004 	push	{r2}		; (str r2, [sp, #-4]!)
    84a8:	e52d0004 	push	{r0}		; (str r0, [sp, #-4]!)
    84ac:	e59fc010 	ldr	ip, [pc, #16]	; 84c4 <_start+0x30>
    84b0:	e52dc004 	push	{ip}		; (str ip, [sp, #-4]!)
    84b4:	e59f000c 	ldr	r0, [pc, #12]	; 84c8 <_start+0x34>
    84b8:	e59f300c 	ldr	r3, [pc, #12]	; 84cc <_start+0x38>
    84bc:	ebffffe8 	bl	8464 <__libc_start_main@plt>
    84c0:	ebfffff0 	bl	8488 <abort@plt>
    84c4:	000085c4 	andeq	r8, r0, r4, asr #11
    84c8:	00008540 	andeq	r8, r0, r0, asr #10
    84cc:	00008564 	andeq	r8, r0, r4, ror #10

000084d0 <call_gmon_start>:
    84d0:	e59f3014 	ldr	r3, [pc, #20]	; 84ec <call_gmon_start+0x1c>
    84d4:	e59f2014 	ldr	r2, [pc, #20]	; 84f0 <call_gmon_start+0x20>
    84d8:	e08f3003 	add	r3, pc, r3
    84dc:	e7933002 	ldr	r3, [r3, r2]
    84e0:	e3530000 	cmp	r3, #0
    84e4:	012fff1e 	bxeq	lr
    84e8:	eaffffe0 	b	8470 <__gmon_start__@plt>
    84ec:	0000820c 	andeq	r8, r0, ip, lsl #4
    84f0:	0000001c 	andeq	r0, r0, ip, lsl r0

000084f4 <__do_global_dtors_aux>:
    84f4:	e59f3010 	ldr	r3, [pc, #16]	; 850c <__do_global_dtors_aux+0x18>
    84f8:	e5d32000 	ldrb	r2, [r3]
    84fc:	e3520000 	cmp	r2, #0
    8500:	03a02001 	moveq	r2, #1
    8504:	05c32000 	strbeq	r2, [r3]
    8508:	e12fff1e 	bx	lr
    850c:	00010714 	andeq	r0, r1, r4, lsl r7

00008510 <frame_dummy>:
    8510:	e59f0020 	ldr	r0, [pc, #32]	; 8538 <frame_dummy+0x28>
    8514:	e92d4008 	push	{r3, lr}
    8518:	e5903000 	ldr	r3, [r0]
    851c:	e3530000 	cmp	r3, #0
    8520:	08bd8008 	popeq	{r3, pc}
    8524:	e59f3010 	ldr	r3, [pc, #16]	; 853c <frame_dummy+0x2c>
    8528:	e3530000 	cmp	r3, #0
    852c:	08bd8008 	popeq	{r3, pc}
    8530:	e12fff33 	blx	r3
    8534:	e8bd8008 	pop	{r3, pc}
    8538:	000105e8 	andeq	r0, r1, r8, ror #11
    853c:	00000000 	andeq	r0, r0, r0

00008540 <main>:
#include <stdio.h>
#include "Lib_a.h"

int main(int argc, char* argv[])
{
    8540:	e92d4800 	push	{fp, lr}
    8544:	e28db004 	add	fp, sp, #4
    8548:	e24dd008 	sub	sp, sp, #8
    854c:	e50b0008 	str	r0, [fp, #-8]
    8550:	e50b100c 	str	r1, [fp, #-12]
	foo();	
    8554:	ebffffc8 	bl	847c <foo@plt>
}
    8558:	e1a00003 	mov	r0, r3
    855c:	e24bd004 	sub	sp, fp, #4
    8560:	e8bd8800 	pop	{fp, pc}

00008564 <__libc_csu_init>:
    8564:	e92d45f8 	push	{r3, r4, r5, r6, r7, r8, sl, lr}
    8568:	e1a06000 	mov	r6, r0
    856c:	e59f5048 	ldr	r5, [pc, #72]	; 85bc <__libc_csu_init+0x58>
    8570:	e59fa048 	ldr	sl, [pc, #72]	; 85c0 <__libc_csu_init+0x5c>
    8574:	e08f5005 	add	r5, pc, r5
    8578:	e08fa00a 	add	sl, pc, sl
    857c:	e065a00a 	rsb	sl, r5, sl
    8580:	e1a07001 	mov	r7, r1
    8584:	e1a08002 	mov	r8, r2
    8588:	ebffffad 	bl	8444 <_init>
    858c:	e1b0a14a 	asrs	sl, sl, #2
    8590:	08bd85f8 	popeq	{r3, r4, r5, r6, r7, r8, sl, pc}
    8594:	e3a04000 	mov	r4, #0
    8598:	e4953004 	ldr	r3, [r5], #4
    859c:	e1a00006 	mov	r0, r6
    85a0:	e1a01007 	mov	r1, r7
    85a4:	e1a02008 	mov	r2, r8
    85a8:	e2844001 	add	r4, r4, #1
    85ac:	e12fff33 	blx	r3
    85b0:	e154000a 	cmp	r4, sl
    85b4:	1afffff7 	bne	8598 <__libc_csu_init+0x34>
    85b8:	e8bd85f8 	pop	{r3, r4, r5, r6, r7, r8, sl, pc}
    85bc:	00008064 	andeq	r8, r0, r4, rrx
    85c0:	00008064 	andeq	r8, r0, r4, rrx

000085c4 <__libc_csu_fini>:
    85c4:	e12fff1e 	bx	lr

Disassembly of section .fini:

000085c8 <_fini>:
    85c8:	e92d4008 	push	{r3, lr}
    85cc:	e8bd8008 	pop	{r3, pc}
